target datalayout = "e-m:e-p270:32:32-p271:32:32-p272:64:64-i64:64-i128:128-f80:128-n8:16:32:64-S128"
target triple = "x86_64-pc-linux-gnu"

%struct.TString = type { ptr, i8, i8, i8, i8, i32, %union.anon.4, ptr, ptr, ptr }
%union.anon.4 = type { i64 }

@.str.8 = private unnamed_addr constant [10 x i8] c"%s:%d: %s\00", align 1

; Function Attrs: nounwind uwtable
define hidden ptr @luaG_addinfo(ptr noundef %0, ptr noundef %1, ptr noundef %2, i32 noundef %3) #0 {
  %5 = alloca ptr, align 8
  %6 = alloca ptr, align 8
  %7 = alloca ptr, align 8
  %8 = alloca i32, align 4
  %9 = alloca [60 x i8], align 16
  %10 = alloca i64, align 8
  %11 = alloca ptr, align 8
  store ptr %0, ptr %5, align 8, !tbaa !30
  store ptr %1, ptr %6, align 8, !tbaa !58
  store ptr %2, ptr %7, align 8, !tbaa !95
  store i32 %3, ptr %8, align 4, !tbaa !9
  call void @llvm.lifetime.start.p0(i64 60, ptr %9) #8
  %12 = load ptr, ptr %7, align 8, !tbaa !95
  %13 = icmp ne ptr %12, null
  br i1 %13, label %14, label %39

14:                                               ; preds = %4
  call void @llvm.lifetime.start.p0(i64 8, ptr %10) #8
  call void @llvm.lifetime.start.p0(i64 8, ptr %11) #8
  %15 = load ptr, ptr %7, align 8, !tbaa !95
  %16 = getelementptr inbounds nuw %struct.TString, ptr %15, i32 0, i32 4
  %17 = load i8, ptr %16, align 1, !tbaa !96
  %18 = sext i8 %17 to i32
  %19 = icmp sge i32 %18, 0
  br i1 %19, label %20, label %27

20:                                               ; preds = %14
  %21 = load ptr, ptr %7, align 8, !tbaa !95
  %22 = getelementptr inbounds nuw %struct.TString, ptr %21, i32 0, i32 4
  %23 = load i8, ptr %22, align 1, !tbaa !96
  %24 = sext i8 %23 to i64
  store i64 %24, ptr %10, align 8, !tbaa !98
  %25 = load ptr, ptr %7, align 8, !tbaa !95
  %26 = getelementptr inbounds nuw %struct.TString, ptr %25, i32 0, i32 7
  br label %34

27:                                               ; preds = %14
  %28 = load ptr, ptr %7, align 8, !tbaa !95
  %29 = getelementptr inbounds nuw %struct.TString, ptr %28, i32 0, i32 6
  %30 = load i64, ptr %29, align 8, !tbaa !22
  store i64 %30, ptr %10, align 8, !tbaa !98
  %31 = load ptr, ptr %7, align 8, !tbaa !95
  %32 = getelementptr inbounds nuw %struct.TString, ptr %31, i32 0, i32 7
  %33 = load ptr, ptr %32, align 8, !tbaa !99
  br label %34

34:                                               ; preds = %27, %20
  %35 = phi ptr [ %26, %20 ], [ %33, %27 ]
  store ptr %35, ptr %11, align 8, !tbaa !58
  %36 = getelementptr inbounds [60 x i8], ptr %9, i64 0, i64 0
  %37 = load ptr, ptr %11, align 8, !tbaa !58
  %38 = load i64, ptr %10, align 8, !tbaa !98
  call void @luaO_chunkid(ptr noundef %36, ptr noundef %37, i64 noundef %38)
  call void @llvm.lifetime.end.p0(i64 8, ptr %11) #8
  call void @llvm.lifetime.end.p0(i64 8, ptr %10) #8
  br label %42

39:                                               ; preds = %4
  %40 = getelementptr inbounds [60 x i8], ptr %9, i64 0, i64 0
  store i8 63, ptr %40, align 16, !tbaa !22
  %41 = getelementptr inbounds [60 x i8], ptr %9, i64 0, i64 1
  store i8 0, ptr %41, align 1, !tbaa !22
  br label %42

42:                                               ; preds = %39, %34
  %43 = load ptr, ptr %5, align 8, !tbaa !30
  %44 = getelementptr inbounds [60 x i8], ptr %9, i64 0, i64 0
  %45 = load i32, ptr %8, align 4, !tbaa !9
  %46 = load ptr, ptr %6, align 8, !tbaa !58
  %47 = call ptr (ptr, ptr, ...) @luaO_pushfstring(ptr noundef %43, ptr noundef @.str.8, ptr noundef %44, i32 noundef %45, ptr noundef %46)
  call void @llvm.lifetime.end.p0(i64 60, ptr %9) #8
  ret ptr %47
}