; Function Attrs: nounwind uwtable
define hidden ptr @luaG_addinfo(ptr noundef %0, ptr noundef %1, ptr noundef %2, i32 noundef %3) local_unnamed_addr #6 {
  %5 = alloca [60 x i8], align 16
  call void @llvm.lifetime.start.p0(i64 60, ptr nonnull %5) #13
  %.not = icmp eq ptr %2, null
  br i1 %.not, label %20, label %6

6:                                                ; preds = %4
  %7 = getelementptr inbounds nuw i8, ptr %2, i64 11
  %8 = load i8, ptr %7, align 1, !tbaa !60
  %9 = icmp sgt i8 %8, -1
  br i1 %9, label %10, label %13

10:                                               ; preds = %6
  %11 = zext nneg i8 %8 to i64
  %12 = getelementptr inbounds nuw i8, ptr %2, i64 24
  br label %18

13:                                               ; preds = %6
  %14 = getelementptr inbounds nuw i8, ptr %2, i64 16
  %15 = load i64, ptr %14, align 8, !tbaa !24
  %16 = getelementptr inbounds nuw i8, ptr %2, i64 24
  %17 = load ptr, ptr %16, align 8, !tbaa !62
  br label %18

18:                                               ; preds = %13, %10
  %.0 = phi i64 [ %11, %10 ], [ %15, %13 ]
  %19 = phi ptr [ %12, %10 ], [ %17, %13 ]
  call void @luaO_chunkid(ptr noundef nonnull %5, ptr noundef %19, i64 noundef %.0) #13
  br label %22

20:                                               ; preds = %4
  store i8 63, ptr %5, align 16, !tbaa !24
  %21 = getelementptr inbounds nuw i8, ptr %5, i64 1
  store i8 0, ptr %21, align 1, !tbaa !24
  br label %22

22:                                               ; preds = %20, %18
  %23 = call ptr (ptr, ptr, ...) @luaO_pushfstring(ptr noundef %0, ptr noundef nonnull @.str.8, ptr noundef nonnull %5, i32 noundef %3, ptr noundef %1) #13
  call void @llvm.lifetime.end.p0(i64 60, ptr nonnull %5) #13
  ret ptr %23
}